target datalayout = "e-m:e-p270:32:32-p271:32:32-p272:64:64-i64:64-i128:128-f80:128-n8:16:32:64-S128"
target triple = "x86_64-pc-linux-gnu"

%"class.clang::QualType" = type { %"class.llvm::PointerIntPair.139" }
%"class.llvm::PointerIntPair.139" = type { %"struct.llvm::detail::PunnedPointer.140" }
%"struct.llvm::detail::PunnedPointer.140" = type { [8 x i8] }
%"class.clang::SourceLocation" = type { i32 }
%"class.llvm::PointerIntPair" = type { %"struct.llvm::detail::PunnedPointer" }
%"struct.llvm::detail::PunnedPointer" = type { [8 x i8] }
%"class.llvm::PointerUnion" = type { %"class.llvm::pointer_union_detail::PointerUnionMembers" }
%"class.llvm::pointer_union_detail::PointerUnionMembers" = type { %"class.llvm::pointer_union_detail::PointerUnionMembers.0" }
%"class.llvm::pointer_union_detail::PointerUnionMembers.0" = type { %"class.llvm::pointer_union_detail::PointerUnionMembers.1" }
%"class.llvm::pointer_union_detail::PointerUnionMembers.1" = type { %"class.llvm::PointerIntPair.2" }
%"class.llvm::PointerIntPair.2" = type { %"struct.llvm::detail::PunnedPointer.3" }
%"struct.llvm::detail::PunnedPointer.3" = type { [8 x i8] }
%"class.clang::Decl.base" = type <{ ptr, %"class.llvm::PointerIntPair", %"class.llvm::PointerUnion", %"class.clang::SourceLocation", i32, i8 }>
%"class.clang::DeclaratorDecl.base" = type <{ %"class.clang::ValueDecl", %"class.llvm::PointerUnion.438", %"class.clang::SourceLocation" }>
%"class.clang::ValueDecl" = type { %"class.clang::NamedDecl", %"class.clang::QualType" }
%"class.clang::NamedDecl" = type { %"class.clang::Decl.base", %"class.clang::DeclarationName" }
%"class.clang::DeclarationName" = type { i64 }
%"class.llvm::PointerUnion.438" = type { %"class.llvm::pointer_union_detail::PointerUnionMembers.439" }
%"class.llvm::pointer_union_detail::PointerUnionMembers.439" = type { %"class.llvm::pointer_union_detail::PointerUnionMembers.440" }
%"class.llvm::pointer_union_detail::PointerUnionMembers.440" = type { %"class.llvm::pointer_union_detail::PointerUnionMembers.441" }
%"class.llvm::pointer_union_detail::PointerUnionMembers.441" = type { %"class.llvm::PointerIntPair.442" }
%"class.llvm::PointerIntPair.442" = type { %"struct.llvm::detail::PunnedPointer.3" }
%"struct.clang::LazyOffsetPtr" = type { i64 }
%"class.llvm::APInt" = type <{ %union.anon.819, i32, [4 x i8] }>
%union.anon.819 = type { i64 }
%"class.clang::FieldDecl" = type { %"class.clang::DeclaratorDecl.base", i32, %union.anon.703 }
%union.anon.703 = type { %"struct.clang::LazyOffsetPtr" }
%"struct.clang::FieldDecl::InitAndBitWidthStorage" = type { %"struct.clang::LazyOffsetPtr", ptr }
%"class.llvm::APSInt" = type { %"class.llvm::APInt.base", i8, [3 x i8] }
%"class.llvm::APInt.base" = type <{ %union.anon.819, i32 }>

; Function Attrs: mustprogress nounwind uwtable
define linkonce_odr hidden noundef zeroext i1 @_ZNK4llvm5APInt12needsCleanupEv(ptr noundef nonnull align 8 dereferenceable(12) %0) #0 comdat align 2 {
  %2 = alloca ptr, align 8
  store ptr %0, ptr %2, align 8
  %3 = load ptr, ptr %2, align 8
  %4 = call noundef zeroext i1 @_ZNK4llvm5APInt12isSingleWordEv(ptr noundef nonnull align 8 dereferenceable(12) %3)
  %5 = xor i1 %4, true
  ret i1 %5
}

; Function Attrs: mustprogress nounwind uwtable
define linkonce_odr hidden noundef i32 @_ZNK5clang9FieldDecl19getInClassInitStyleEv(ptr noundef nonnull align 8 dereferenceable(80) %0) #0 comdat align 2 {
  %2 = alloca ptr, align 8
  store ptr %0, ptr %2, align 8
  %3 = load ptr, ptr %2, align 8
  %4 = getelementptr inbounds nuw %"class.clang::FieldDecl", ptr %3, i32 0, i32 1
  %5 = load i32, ptr %4, align 4
  %6 = lshr i32 %5, 2
  %7 = and i32 %6, 3
  %8 = icmp eq i32 %7, 3
  br i1 %8, label %9, label %10

9:                                                ; preds = %1
  br label %15

10:                                               ; preds = %1
  %11 = getelementptr inbounds nuw %"class.clang::FieldDecl", ptr %3, i32 0, i32 1
  %12 = load i32, ptr %11, align 4
  %13 = lshr i32 %12, 2
  %14 = and i32 %13, 3
  br label %15

15:                                               ; preds = %10, %9
  %16 = phi i32 [ 0, %9 ], [ %14, %10 ]
  ret i32 %16
}

; Function Attrs: mustprogress nounwind uwtable
define linkonce_odr hidden void @_ZN4llvm5APIntD2Ev(ptr noundef nonnull align 8 dereferenceable(12) %0) unnamed_addr #0 comdat align 2 {
  %2 = alloca ptr, align 8
  store ptr %0, ptr %2, align 8
  %3 = load ptr, ptr %2, align 8
  %4 = call noundef zeroext i1 @_ZNK4llvm5APInt12needsCleanupEv(ptr noundef nonnull align 8 dereferenceable(12) %3)
  br i1 %4, label %5, label %11

5:                                                ; preds = %1
  %6 = getelementptr inbounds nuw %"class.llvm::APInt", ptr %3, i32 0, i32 0
  %7 = load ptr, ptr %6, align 8
  %8 = icmp eq ptr %7, null
  br i1 %8, label %10, label %9

9:                                                ; preds = %5
  call void @_ZdaPv(ptr noundef %7) #14
  br label %10

10:                                               ; preds = %9, %5
  br label %11

11:                                               ; preds = %10, %1
  ret void
}

; Function Attrs: mustprogress nounwind uwtable
define linkonce_odr hidden noundef zeroext i1 @_ZNK4llvm5APInt12isSingleWordEv(ptr noundef nonnull align 8 dereferenceable(12) %0) #0 comdat align 2 {
  %2 = alloca ptr, align 8
  store ptr %0, ptr %2, align 8
  %3 = load ptr, ptr %2, align 8
  %4 = getelementptr inbounds nuw %"class.llvm::APInt", ptr %3, i32 0, i32 1
  %5 = load i32, ptr %4, align 8
  %6 = icmp ule i32 %5, 64
  ret i1 %6
}

; Function Attrs: mustprogress nounwind uwtable
define linkonce_odr hidden noundef zeroext i1 @_ZNK5clang9FieldDecl21hasInClassInitializerEv(ptr noundef nonnull align 8 dereferenceable(80) %0) #0 comdat align 2 {
  %2 = alloca ptr, align 8
  store ptr %0, ptr %2, align 8
  %3 = load ptr, ptr %2, align 8
  %4 = call noundef i32 @_ZNK5clang9FieldDecl19getInClassInitStyleEv(ptr noundef nonnull align 8 dereferenceable(80) %3)
  %5 = icmp ne i32 %4, 0
  ret i1 %5
}

; Function Attrs: mustprogress nounwind uwtable
define linkonce_odr hidden void @_ZN4llvm6APSIntD2Ev(ptr noundef nonnull align 8 dereferenceable(13) %0) unnamed_addr #0 comdat align 2 {
  %2 = alloca ptr, align 8
  store ptr %0, ptr %2, align 8
  %3 = load ptr, ptr %2, align 8
  call void @_ZN4llvm5APIntD2Ev(ptr noundef nonnull align 8 dereferenceable(12) %3) #13
  ret void
}

; Function Attrs: mustprogress nounwind uwtable
define linkonce_odr hidden noundef i64 @_ZNK4llvm5APInt12getZExtValueEv(ptr noundef nonnull align 8 dereferenceable(12) %0) #0 comdat align 2 {
  %2 = alloca i64, align 8
  %3 = alloca ptr, align 8
  store ptr %0, ptr %3, align 8
  %4 = load ptr, ptr %3, align 8
  %5 = call noundef zeroext i1 @_ZNK4llvm5APInt12isSingleWordEv(ptr noundef nonnull align 8 dereferenceable(12) %4)
  br i1 %5, label %6, label %9

6:                                                ; preds = %1
  %7 = getelementptr inbounds nuw %"class.llvm::APInt", ptr %4, i32 0, i32 0
  %8 = load i64, ptr %7, align 8
  store i64 %8, ptr %2, align 8
  br label %14

9:                                                ; preds = %1
  %10 = getelementptr inbounds nuw %"class.llvm::APInt", ptr %4, i32 0, i32 0
  %11 = load ptr, ptr %10, align 8
  %12 = getelementptr inbounds i64, ptr %11, i64 0
  %13 = load i64, ptr %12, align 8
  store i64 %13, ptr %2, align 8
  br label %14

14:                                               ; preds = %9, %6
  %15 = load i64, ptr %2, align 8
  ret i64 %15
}

; Function Attrs: mustprogress nounwind uwtable
define linkonce_odr hidden noundef ptr @_ZNK5clang9FieldDecl11getBitWidthEv(ptr noundef nonnull align 8 dereferenceable(80) %0) #0 comdat align 2 {
  %2 = alloca ptr, align 8
  %3 = alloca ptr, align 8
  store ptr %0, ptr %3, align 8
  %4 = load ptr, ptr %3, align 8
  %5 = getelementptr inbounds nuw %"class.clang::FieldDecl", ptr %4, i32 0, i32 1
  %6 = load i32, ptr %5, align 4
  %7 = and i32 %6, 1
  %8 = icmp ne i32 %7, 0
  br i1 %8, label %10, label %9

9:                                                ; preds = %1
  store ptr null, ptr %2, align 8
  br label %22

10:                                               ; preds = %1
  %11 = call noundef zeroext i1 @_ZNK5clang9FieldDecl21hasInClassInitializerEv(ptr noundef nonnull align 8 dereferenceable(80) %4)
  br i1 %11, label %12, label %17

12:                                               ; preds = %10
  %13 = getelementptr inbounds nuw %"class.clang::FieldDecl", ptr %4, i32 0, i32 2
  %14 = load ptr, ptr %13, align 8
  %15 = getelementptr inbounds nuw %"struct.clang::FieldDecl::InitAndBitWidthStorage", ptr %14, i32 0, i32 1
  %16 = load ptr, ptr %15, align 8
  br label %20

17:                                               ; preds = %10
  %18 = getelementptr inbounds nuw %"class.clang::FieldDecl", ptr %4, i32 0, i32 2
  %19 = load ptr, ptr %18, align 8
  br label %20

20:                                               ; preds = %17, %12
  %21 = phi ptr [ %16, %12 ], [ %19, %17 ]
  store ptr %21, ptr %2, align 8
  br label %22

22:                                               ; preds = %20, %9
  %23 = load ptr, ptr %2, align 8
  ret ptr %23
}

; Function Attrs: mustprogress nounwind uwtable
define dso_local noundef i32 @_ZNK5clang9FieldDecl16getBitWidthValueERKNS_10ASTContextE(ptr noundef nonnull align 8 dereferenceable(80) %0, ptr noundef nonnull align 8 dereferenceable(23096) %1) #0 align 2 {
  %3 = alloca ptr, align 8
  %4 = alloca ptr, align 8
  %5 = alloca %"class.llvm::APSInt", align 8
  store ptr %0, ptr %3, align 8
  store ptr %1, ptr %4, align 8
  %6 = load ptr, ptr %3, align 8
  %7 = call noundef ptr @_ZNK5clang9FieldDecl11getBitWidthEv(ptr noundef nonnull align 8 dereferenceable(80) %6)
  %8 = load ptr, ptr %4, align 8
  call void @_ZNK5clang4Expr21EvaluateKnownConstIntERKNS_10ASTContextEPN4llvm15SmallVectorImplISt4pairINS_14SourceLocationENS_17PartialDiagnosticEEEE(ptr dead_on_unwind writable sret(%"class.llvm::APSInt") align 8 %5, ptr noundef nonnull align 8 dereferenceable(16) %7, ptr noundef nonnull align 8 dereferenceable(23096) %8, ptr noundef null)
  %9 = call noundef i64 @_ZNK4llvm5APInt12getZExtValueEv(ptr noundef nonnull align 8 dereferenceable(12) %5)
  %10 = trunc i64 %9 to i32
  call void @_ZN4llvm6APSIntD2Ev(ptr noundef nonnull align 8 dereferenceable(13) %5) #13
  ret i32 %10
}