; Function Attrs: mustprogress nounwind uwtable
define dso_local noundef i32 @_ZNK5clang9FieldDecl16getBitWidthValueERKNS_10ASTContextE(ptr nocapture noundef nonnull readonly align 8 dereferenceable(80) %0, ptr noundef nonnull align 8 dereferenceable(23096) %1) local_unnamed_addr #2 align 2 {
_ZNK5clang9FieldDecl11getBitWidthEv.exit:
  %2 = alloca %"class.llvm::APSInt", align 8
  %3 = getelementptr inbounds nuw i8, ptr %0, i64 68
  %4 = load i32, ptr %3, align 4
  %5 = and i32 %4, 1
  %.not.i = icmp ne i32 %5, 0
  tail call void @llvm.assume(i1 %.not.i)
  %6 = lshr i32 %4, 2
  %7 = and i32 %6, 3
  %8 = icmp ne i32 %7, 3
  %9 = icmp ne i32 %7, 0
  %10 = and i1 %8, %9
  %11 = getelementptr inbounds nuw i8, ptr %0, i64 72
  %12 = load ptr, ptr %11, align 8
  %13 = getelementptr inbounds nuw i8, ptr %12, i64 8
  %.in.i = select i1 %10, ptr %13, ptr %11
  %14 = load ptr, ptr %.in.i, align 8
  call void @_ZNK5clang4Expr21EvaluateKnownConstIntERKNS_10ASTContextEPN4llvm15SmallVectorImplISt4pairINS_14SourceLocationENS_17PartialDiagnosticEEEE(ptr dead_on_unwind nonnull writable sret(%"class.llvm::APSInt") align 8 %2, ptr noundef nonnull align 8 dereferenceable(16) %14, ptr noundef nonnull align 8 dereferenceable(23096) %1, ptr noundef null) #27
  %15 = getelementptr inbounds nuw i8, ptr %2, i64 8
  %16 = load i32, ptr %15, align 8
  %17 = icmp ult i32 %16, 65
  %18 = load ptr, ptr %2, align 8
  %.0.in.i = select i1 %17, ptr %2, ptr %18
  %.0.i2 = load i64, ptr %.0.in.i, align 8
  %19 = icmp eq ptr %18, null
  %or.cond = select i1 %17, i1 true, i1 %19
  br i1 %or.cond, label %_ZN4llvm6APSIntD2Ev.exit, label %20

20:                                               ; preds = %_ZNK5clang9FieldDecl11getBitWidthEv.exit
  call void @_ZdaPv(ptr noundef nonnull %18) #28
  br label %_ZN4llvm6APSIntD2Ev.exit

_ZN4llvm6APSIntD2Ev.exit:                         ; preds = %_ZNK5clang9FieldDecl11getBitWidthEv.exit, %20
  %21 = trunc i64 %.0.i2 to i32
  ret i32 %21
}